; Function Attrs: nounwind sspstrong uwtable
define dso_local noalias noundef ptr @qnum_from_uint(i64 noundef %value) local_unnamed_addr #0 {
entry:
  %call = tail call noalias dereferenceable_or_null(32) ptr @g_malloc_n(i64 noundef 1, i64 noundef 32) #5
  %refcnt.i = getelementptr inbounds nuw i8, ptr %call, i64 8
  store i64 1, ptr %refcnt.i, align 8
  store i32 2, ptr %call, align 8
  %kind = getelementptr inbounds nuw i8, ptr %call, i64 16
  store i32 1, ptr %kind, align 8
  %u = getelementptr inbounds nuw i8, ptr %call, i64 24
  store i64 %value, ptr %u, align 8
  ret ptr %call
}